target datalayout = "e-m:e-p270:32:32-p271:32:32-p272:64:64-i64:64-i128:128-f80:128-n8:16:32:64-S128"
target triple = "x86_64-pc-linux-gnu"

%struct.mbedtls_oid_descriptor_t = type { ptr, i64, ptr, ptr }
%struct.oid_md_alg_t = type { %struct.mbedtls_oid_descriptor_t, i32 }

; Function Attrs: nounwind uwtable
define hidden i32 @mbedtls_oid_get_oid_by_md(i32 noundef %0, ptr noundef %1, ptr noundef %2) #0 {
  %4 = alloca i32, align 4
  %5 = alloca i32, align 4
  %6 = alloca ptr, align 8
  %7 = alloca ptr, align 8
  %8 = alloca ptr, align 8
  %9 = alloca i32, align 4
  store i32 %0, ptr %5, align 4, !tbaa !32
  store ptr %1, ptr %6, align 8, !tbaa !8
  store ptr %2, ptr %7, align 8, !tbaa !42
  call void @llvm.lifetime.start.p0(i64 8, ptr %8) #6
  store ptr @oid_md_alg, ptr %8, align 8, !tbaa !11
  br label %10

10:                                               ; preds = %33, %3
  %11 = load ptr, ptr %8, align 8, !tbaa !11
  %12 = getelementptr inbounds nuw %struct.oid_md_alg_t, ptr %11, i32 0, i32 0
  %13 = getelementptr inbounds nuw %struct.mbedtls_oid_descriptor_t, ptr %12, i32 0, i32 0
  %14 = load ptr, ptr %13, align 8, !tbaa !49
  %15 = icmp ne ptr %14, null
  br i1 %15, label %16, label %36

16:                                               ; preds = %10
  %17 = load ptr, ptr %8, align 8, !tbaa !11
  %18 = getelementptr inbounds nuw %struct.oid_md_alg_t, ptr %17, i32 0, i32 1
  %19 = load i32, ptr %18, align 8, !tbaa !30
  %20 = load i32, ptr %5, align 4, !tbaa !32
  %21 = icmp eq i32 %19, %20
  br i1 %21, label %22, label %33

22:                                               ; preds = %16
  %23 = load ptr, ptr %8, align 8, !tbaa !11
  %24 = getelementptr inbounds nuw %struct.oid_md_alg_t, ptr %23, i32 0, i32 0
  %25 = getelementptr inbounds nuw %struct.mbedtls_oid_descriptor_t, ptr %24, i32 0, i32 0
  %26 = load ptr, ptr %25, align 8, !tbaa !49
  %27 = load ptr, ptr %6, align 8, !tbaa !8
  store ptr %26, ptr %27, align 8, !tbaa !17
  %28 = load ptr, ptr %8, align 8, !tbaa !11
  %29 = getelementptr inbounds nuw %struct.oid_md_alg_t, ptr %28, i32 0, i32 0
  %30 = getelementptr inbounds nuw %struct.mbedtls_oid_descriptor_t, ptr %29, i32 0, i32 1
  %31 = load i64, ptr %30, align 8, !tbaa !50
  %32 = load ptr, ptr %7, align 8, !tbaa !42
  store i64 %31, ptr %32, align 8, !tbaa !46
  store i32 0, ptr %4, align 4
  store i32 1, ptr %9, align 4
  br label %37

33:                                               ; preds = %16
  %34 = load ptr, ptr %8, align 8, !tbaa !11
  %35 = getelementptr inbounds nuw %struct.oid_md_alg_t, ptr %34, i32 1
  store ptr %35, ptr %8, align 8, !tbaa !11
  br label %10, !llvm.loop !58

36:                                               ; preds = %10
  store i32 -46, ptr %4, align 4
  store i32 1, ptr %9, align 4
  br label %37

37:                                               ; preds = %36, %22
  call void @llvm.lifetime.end.p0(i64 8, ptr %8) #6
  %38 = load i32, ptr %4, align 4
  ret i32 %38
}