; Function Attrs: nofree norecurse nosync nounwind memory(argmem: write) uwtable
define hidden range(i32 -46, 1) i32 @mbedtls_oid_get_oid_by_md(i32 noundef %0, ptr noundef writeonly captures(none) %1, ptr noundef writeonly captures(none) %2) local_unnamed_addr #3 {
  %4 = icmp eq i32 %0, 3
  br i1 %4, label %._crit_edge, label %.lr.ph

5:                                                ; preds = %.lr.ph
  %6 = getelementptr inbounds nuw i8, ptr %.01219, i64 72
  %7 = load i32, ptr %6, align 8, !tbaa !21
  %8 = icmp eq i32 %7, %0
  br i1 %8, label %._crit_edge, label %.lr.ph, !llvm.loop !45

._crit_edge:                                      ; preds = %5, %3
  %.lcssa = phi ptr [ @.str.223, %3 ], [ %12, %5 ]
  %.012.lcssa = phi ptr [ @oid_md_alg, %3 ], [ %11, %5 ]
  store ptr %.lcssa, ptr %1, align 8, !tbaa !19
  %9 = getelementptr inbounds nuw i8, ptr %.012.lcssa, i64 8
  %10 = load i64, ptr %9, align 8, !tbaa !37
  store i64 %10, ptr %2, align 8, !tbaa !32
  br label %.loopexit

.lr.ph:                                           ; preds = %3, %5
  %.01219 = phi ptr [ %11, %5 ], [ @oid_md_alg, %3 ]
  %11 = getelementptr inbounds nuw i8, ptr %.01219, i64 40
  %12 = load ptr, ptr %11, align 8, !tbaa !38
  %.not = icmp eq ptr %12, null
  br i1 %.not, label %.loopexit, label %5, !llvm.loop !45

.loopexit:                                        ; preds = %.lr.ph, %._crit_edge
  %.08 = phi i32 [ 0, %._crit_edge ], [ -46, %.lr.ph ]
  ret i32 %.08
}